target datalayout = "e-m:e-p270:32:32-p271:32:32-p272:64:64-i64:64-i128:128-f80:128-n8:16:32:64-S128"
target triple = "x86_64-pc-linux-gnu"

%"class.cv::xfeatures2d::GMSMatcher" = type { %"class.std::vector", %"class.std::vector", %"class.std::vector.0", i64, %"class.cv::Size_", %"class.cv::Size_", i32, i32, %"class.cv::Mat", %"class.std::vector.5", %"class.std::vector.5", %"class.std::vector.0", %"class.std::vector.10", %"class.cv::Mat", %"class.cv::Mat", double }
%"class.std::vector" = type { %"struct.std::_Vector_base" }
%"struct.std::_Vector_base" = type { %"struct.std::_Vector_base<cv::Point_<float>, std::allocator<cv::Point_<float>>>::_Vector_impl" }
%"struct.std::_Vector_base<cv::Point_<float>, std::allocator<cv::Point_<float>>>::_Vector_impl" = type { %"struct.std::_Vector_base<cv::Point_<float>, std::allocator<cv::Point_<float>>>::_Vector_impl_data" }
%"struct.std::_Vector_base<cv::Point_<float>, std::allocator<cv::Point_<float>>>::_Vector_impl_data" = type { ptr, ptr, ptr }
%"class.cv::Size_" = type { i32, i32 }
%"class.std::vector.5" = type { %"struct.std::_Vector_base.6" }
%"struct.std::_Vector_base.6" = type { %"struct.std::_Vector_base<int, std::allocator<int>>::_Vector_impl" }
%"struct.std::_Vector_base<int, std::allocator<int>>::_Vector_impl" = type { %"struct.std::_Vector_base<int, std::allocator<int>>::_Vector_impl_data" }
%"struct.std::_Vector_base<int, std::allocator<int>>::_Vector_impl_data" = type { ptr, ptr, ptr }
%"class.std::vector.0" = type { %"struct.std::_Vector_base.1" }
%"struct.std::_Vector_base.1" = type { %"struct.std::_Vector_base<std::pair<int, int>, std::allocator<std::pair<int, int>>>::_Vector_impl" }
%"struct.std::_Vector_base<std::pair<int, int>, std::allocator<std::pair<int, int>>>::_Vector_impl" = type { %"struct.std::_Vector_base<std::pair<int, int>, std::allocator<std::pair<int, int>>>::_Vector_impl_data" }
%"struct.std::_Vector_base<std::pair<int, int>, std::allocator<std::pair<int, int>>>::_Vector_impl_data" = type { ptr, ptr, ptr }
%"class.std::vector.10" = type { %"struct.std::_Bvector_base" }
%"struct.std::_Bvector_base" = type { %"struct.std::_Bvector_base<std::allocator<bool>>::_Bvector_impl" }
%"struct.std::_Bvector_base<std::allocator<bool>>::_Bvector_impl" = type { %"struct.std::_Bvector_base<std::allocator<bool>>::_Bvector_impl_data" }
%"struct.std::_Bvector_base<std::allocator<bool>>::_Bvector_impl_data" = type { %"struct.std::_Bit_iterator", %"struct.std::_Bit_iterator", ptr }
%"struct.std::_Bit_iterator" = type { %"struct.std::_Bit_iterator_base.base", [4 x i8] }
%"struct.std::_Bit_iterator_base.base" = type <{ ptr, i32 }>
%"class.cv::Mat" = type { i32, i32, i32, i32, ptr, ptr, ptr, ptr, ptr, ptr, %"struct.cv::MatSize", %"struct.cv::MatStep" }
%"struct.cv::MatSize" = type { ptr }
%"struct.cv::MatStep" = type { ptr, [2 x i64] }
%"struct.std::pair" = type { i32, i32 }
%"class.cv::Point_" = type { float, float }

; Function Attrs: inlinehint mustprogress nounwind uwtable
define internal noundef i32 @_ZL7cvFloorf(float noundef %0) #5 {
  %2 = alloca float, align 4
  store float %0, ptr %2, align 4, !tbaa !80
  %3 = load float, ptr %2, align 4, !tbaa !80
  %4 = call float @llvm.floor.f32(float %3)
  %5 = fptosi float %4 to i32
  ret i32 %5
}

; Function Attrs: mustprogress nounwind uwtable
define linkonce_odr hidden noundef nonnull align 4 dereferenceable(4) ptr @_ZNSt6vectorIiSaIiEEixEm(ptr noundef nonnull align 8 dereferenceable(24) %0, i64 noundef %1) #4 comdat align 2 {
  %3 = alloca ptr, align 8
  %4 = alloca i64, align 8
  store ptr %0, ptr %3, align 8, !tbaa !69
  store i64 %1, ptr %4, align 8, !tbaa !12
  %5 = load ptr, ptr %3, align 8
  %6 = getelementptr inbounds nuw %"struct.std::_Vector_base.6", ptr %5, i32 0, i32 0
  %7 = getelementptr inbounds nuw %"struct.std::_Vector_base<int, std::allocator<int>>::_Vector_impl_data", ptr %6, i32 0, i32 0
  %8 = load ptr, ptr %7, align 8, !tbaa !71
  %9 = load i64, ptr %4, align 8, !tbaa !12
  %10 = getelementptr inbounds nuw i32, ptr %8, i64 %9
  ret ptr %10
}

; Function Attrs: inlinehint mustprogress nounwind uwtable
define linkonce_odr hidden noundef nonnull align 4 dereferenceable(4) ptr @_ZN2cv3Mat2atIiEERT_ii(ptr noundef nonnull align 8 dereferenceable(96) %0, i32 noundef %1, i32 noundef %2) #5 comdat align 2 {
  %4 = alloca ptr, align 8
  %5 = alloca i32, align 4
  %6 = alloca i32, align 4
  store ptr %0, ptr %4, align 8, !tbaa !65
  store i32 %1, ptr %5, align 4, !tbaa !7
  store i32 %2, ptr %6, align 4, !tbaa !7
  %7 = load ptr, ptr %4, align 8
  %8 = getelementptr inbounds nuw %"class.cv::Mat", ptr %7, i32 0, i32 4
  %9 = load ptr, ptr %8, align 8, !tbaa !67
  %10 = getelementptr inbounds nuw %"class.cv::Mat", ptr %7, i32 0, i32 11
  %11 = getelementptr inbounds nuw %"struct.cv::MatStep", ptr %10, i32 0, i32 0
  %12 = load ptr, ptr %11, align 8, !tbaa !68
  %13 = getelementptr inbounds i64, ptr %12, i64 0
  %14 = load i64, ptr %13, align 8, !tbaa !12
  %15 = load i32, ptr %5, align 4, !tbaa !7
  %16 = sext i32 %15 to i64
  %17 = mul i64 %14, %16
  %18 = getelementptr inbounds nuw i8, ptr %9, i64 %17
  %19 = load i32, ptr %6, align 4, !tbaa !7
  %20 = sext i32 %19 to i64
  %21 = getelementptr inbounds i32, ptr %18, i64 %20
  ret ptr %21
}

; Function Attrs: mustprogress uwtable
define hidden noundef i32 @_ZN2cv11xfeatures2d10GMSMatcher17getGridIndexRightERKNS_6Point_IfEE(ptr noundef nonnull align 8 dereferenceable(512) %0, ptr noundef nonnull align 4 dereferenceable(8) %1) #3 align 2 {
  %3 = alloca ptr, align 8
  %4 = alloca ptr, align 8
  %5 = alloca i32, align 4
  %6 = alloca i32, align 4
  store ptr %0, ptr %3, align 8, !tbaa !9
  store ptr %1, ptr %4, align 8, !tbaa !47
  %7 = load ptr, ptr %3, align 8
  call void @llvm.lifetime.start.p0(i64 4, ptr %5) #18
  %8 = load ptr, ptr %4, align 8, !tbaa !47
  %9 = getelementptr inbounds nuw %"class.cv::Point_", ptr %8, i32 0, i32 0
  %10 = load float, ptr %9, align 4, !tbaa !57
  %11 = getelementptr inbounds nuw %"class.cv::xfeatures2d::GMSMatcher", ptr %7, i32 0, i32 5
  %12 = getelementptr inbounds nuw %"class.cv::Size_", ptr %11, i32 0, i32 0
  %13 = load i32, ptr %12, align 8, !tbaa !63
  %14 = sitofp i32 %13 to float
  %15 = fmul float %10, %14
  %16 = call noundef i32 @_ZL7cvFloorf(float noundef %15)
  store i32 %16, ptr %5, align 4, !tbaa !7
  call void @llvm.lifetime.start.p0(i64 4, ptr %6) #18
  %17 = load ptr, ptr %4, align 8, !tbaa !47
  %18 = getelementptr inbounds nuw %"class.cv::Point_", ptr %17, i32 0, i32 1
  %19 = load float, ptr %18, align 4, !tbaa !61
  %20 = getelementptr inbounds nuw %"class.cv::xfeatures2d::GMSMatcher", ptr %7, i32 0, i32 5
  %21 = getelementptr inbounds nuw %"class.cv::Size_", ptr %20, i32 0, i32 1
  %22 = load i32, ptr %21, align 4, !tbaa !64
  %23 = sitofp i32 %22 to float
  %24 = fmul float %19, %23
  %25 = call noundef i32 @_ZL7cvFloorf(float noundef %24)
  store i32 %25, ptr %6, align 4, !tbaa !7
  %26 = load i32, ptr %5, align 4, !tbaa !7
  %27 = load i32, ptr %6, align 4, !tbaa !7
  %28 = getelementptr inbounds nuw %"class.cv::xfeatures2d::GMSMatcher", ptr %7, i32 0, i32 5
  %29 = getelementptr inbounds nuw %"class.cv::Size_", ptr %28, i32 0, i32 0
  %30 = load i32, ptr %29, align 8, !tbaa !63
  %31 = mul nsw i32 %27, %30
  %32 = add nsw i32 %26, %31
  call void @llvm.lifetime.end.p0(i64 4, ptr %6) #18
  call void @llvm.lifetime.end.p0(i64 4, ptr %5) #18
  ret i32 %32
}

; Function Attrs: mustprogress nounwind uwtable
define linkonce_odr hidden noundef nonnull align 4 dereferenceable(8) ptr @_ZNSt6vectorIN2cv6Point_IfEESaIS2_EEixEm(ptr noundef nonnull align 8 dereferenceable(24) %0, i64 noundef %1) #4 comdat align 2 {
  %3 = alloca ptr, align 8
  %4 = alloca i64, align 8
  store ptr %0, ptr %3, align 8, !tbaa !51
  store i64 %1, ptr %4, align 8, !tbaa !12
  %5 = load ptr, ptr %3, align 8
  %6 = getelementptr inbounds nuw %"struct.std::_Vector_base", ptr %5, i32 0, i32 0
  %7 = getelementptr inbounds nuw %"struct.std::_Vector_base<cv::Point_<float>, std::allocator<cv::Point_<float>>>::_Vector_impl_data", ptr %6, i32 0, i32 0
  %8 = load ptr, ptr %7, align 8, !tbaa !53
  %9 = load i64, ptr %4, align 8, !tbaa !12
  %10 = getelementptr inbounds nuw %"class.cv::Point_", ptr %8, i64 %9
  ret ptr %10
}

; Function Attrs: mustprogress nounwind uwtable
define linkonce_odr hidden noundef nonnull align 4 dereferenceable(8) ptr @_ZNSt6vectorISt4pairIiiESaIS1_EEixEm(ptr noundef nonnull align 8 dereferenceable(24) %0, i64 noundef %1) #4 comdat align 2 {
  %3 = alloca ptr, align 8
  %4 = alloca i64, align 8
  store ptr %0, ptr %3, align 8, !tbaa !54
  store i64 %1, ptr %4, align 8, !tbaa !12
  %5 = load ptr, ptr %3, align 8
  %6 = getelementptr inbounds nuw %"struct.std::_Vector_base.1", ptr %5, i32 0, i32 0
  %7 = getelementptr inbounds nuw %"struct.std::_Vector_base<std::pair<int, int>, std::allocator<std::pair<int, int>>>::_Vector_impl_data", ptr %6, i32 0, i32 0
  %8 = load ptr, ptr %7, align 8, !tbaa !56
  %9 = load i64, ptr %4, align 8, !tbaa !12
  %10 = getelementptr inbounds nuw %"struct.std::pair", ptr %8, i64 %9
  ret ptr %10
}

; Function Attrs: mustprogress uwtable
define hidden void @_ZN2cv11xfeatures2d10GMSMatcher16assignMatchPairsEi(ptr noundef nonnull align 8 dereferenceable(512) %0, i32 noundef %1) #3 align 2 {
  %3 = alloca ptr, align 8
  %4 = alloca i32, align 4
  %5 = alloca i64, align 8
  %6 = alloca i32, align 4
  %7 = alloca ptr, align 8
  %8 = alloca ptr, align 8
  %9 = alloca i32, align 4
  %10 = alloca i32, align 4
  store ptr %0, ptr %3, align 8, !tbaa !9
  store i32 %1, ptr %4, align 4, !tbaa !7
  %11 = load ptr, ptr %3, align 8
  call void @llvm.lifetime.start.p0(i64 8, ptr %5) #18
  store i64 0, ptr %5, align 8, !tbaa !12
  br label %12

12:                                               ; preds = %80, %2
  %13 = load i64, ptr %5, align 8, !tbaa !12
  %14 = getelementptr inbounds nuw %"class.cv::xfeatures2d::GMSMatcher", ptr %11, i32 0, i32 3
  %15 = load i64, ptr %14, align 8, !tbaa !14
  %16 = icmp ult i64 %13, %15
  br i1 %16, label %18, label %17

17:                                               ; preds = %12
  store i32 2, ptr %6, align 4
  call void @llvm.lifetime.end.p0(i64 8, ptr %5) #18
  br label %83

18:                                               ; preds = %12
  call void @llvm.lifetime.start.p0(i64 8, ptr %7) #18
  %19 = getelementptr inbounds nuw %"class.cv::xfeatures2d::GMSMatcher", ptr %11, i32 0, i32 0
  %20 = getelementptr inbounds nuw %"class.cv::xfeatures2d::GMSMatcher", ptr %11, i32 0, i32 2
  %21 = load i64, ptr %5, align 8, !tbaa !12
  %22 = call noundef nonnull align 4 dereferenceable(8) ptr @_ZNSt6vectorISt4pairIiiESaIS1_EEixEm(ptr noundef nonnull align 8 dereferenceable(24) %20, i64 noundef %21) #18
  %23 = getelementptr inbounds nuw %"struct.std::pair", ptr %22, i32 0, i32 0
  %24 = load i32, ptr %23, align 4, !tbaa !45
  %25 = sext i32 %24 to i64
  %26 = call noundef nonnull align 4 dereferenceable(8) ptr @_ZNSt6vectorIN2cv6Point_IfEESaIS2_EEixEm(ptr noundef nonnull align 8 dereferenceable(24) %19, i64 noundef %25) #18
  store ptr %26, ptr %7, align 8, !tbaa !47
  call void @llvm.lifetime.start.p0(i64 8, ptr %8) #18
  %27 = getelementptr inbounds nuw %"class.cv::xfeatures2d::GMSMatcher", ptr %11, i32 0, i32 1
  %28 = getelementptr inbounds nuw %"class.cv::xfeatures2d::GMSMatcher", ptr %11, i32 0, i32 2
  %29 = load i64, ptr %5, align 8, !tbaa !12
  %30 = call noundef nonnull align 4 dereferenceable(8) ptr @_ZNSt6vectorISt4pairIiiESaIS1_EEixEm(ptr noundef nonnull align 8 dereferenceable(24) %28, i64 noundef %29) #18
  %31 = getelementptr inbounds nuw %"struct.std::pair", ptr %30, i32 0, i32 1
  %32 = load i32, ptr %31, align 4, !tbaa !48
  %33 = sext i32 %32 to i64
  %34 = call noundef nonnull align 4 dereferenceable(8) ptr @_ZNSt6vectorIN2cv6Point_IfEESaIS2_EEixEm(ptr noundef nonnull align 8 dereferenceable(24) %27, i64 noundef %33) #18
  store ptr %34, ptr %8, align 8, !tbaa !47
  call void @llvm.lifetime.start.p0(i64 4, ptr %9) #18
  %35 = load ptr, ptr %7, align 8, !tbaa !47
  %36 = load i32, ptr %4, align 4, !tbaa !7
  %37 = call noundef i32 @_ZN2cv11xfeatures2d10GMSMatcher16getGridIndexLeftERKNS_6Point_IfEEi(ptr noundef nonnull align 8 dereferenceable(512) %11, ptr noundef nonnull align 4 dereferenceable(8) %35, i32 noundef %36)
  %38 = getelementptr inbounds nuw %"class.cv::xfeatures2d::GMSMatcher", ptr %11, i32 0, i32 11
  %39 = load i64, ptr %5, align 8, !tbaa !12
  %40 = call noundef nonnull align 4 dereferenceable(8) ptr @_ZNSt6vectorISt4pairIiiESaIS1_EEixEm(ptr noundef nonnull align 8 dereferenceable(24) %38, i64 noundef %39) #18
  %41 = getelementptr inbounds nuw %"struct.std::pair", ptr %40, i32 0, i32 0
  store i32 %37, ptr %41, align 4, !tbaa !45
  store i32 %37, ptr %9, align 4, !tbaa !7
  call void @llvm.lifetime.start.p0(i64 4, ptr %10) #18
  store i32 -1, ptr %10, align 4, !tbaa !7
  %42 = load i32, ptr %4, align 4, !tbaa !7
  %43 = icmp eq i32 %42, 1
  br i1 %43, label %44, label %51

44:                                               ; preds = %18
  %45 = load ptr, ptr %8, align 8, !tbaa !47
  %46 = call noundef i32 @_ZN2cv11xfeatures2d10GMSMatcher17getGridIndexRightERKNS_6Point_IfEE(ptr noundef nonnull align 8 dereferenceable(512) %11, ptr noundef nonnull align 4 dereferenceable(8) %45)
  %47 = getelementptr inbounds nuw %"class.cv::xfeatures2d::GMSMatcher", ptr %11, i32 0, i32 11
  %48 = load i64, ptr %5, align 8, !tbaa !12
  %49 = call noundef nonnull align 4 dereferenceable(8) ptr @_ZNSt6vectorISt4pairIiiESaIS1_EEixEm(ptr noundef nonnull align 8 dereferenceable(24) %47, i64 noundef %48) #18
  %50 = getelementptr inbounds nuw %"struct.std::pair", ptr %49, i32 0, i32 1
  store i32 %46, ptr %50, align 4, !tbaa !48
  store i32 %46, ptr %10, align 4, !tbaa !7
  br label %57

51:                                               ; preds = %18
  %52 = getelementptr inbounds nuw %"class.cv::xfeatures2d::GMSMatcher", ptr %11, i32 0, i32 11
  %53 = load i64, ptr %5, align 8, !tbaa !12
  %54 = call noundef nonnull align 4 dereferenceable(8) ptr @_ZNSt6vectorISt4pairIiiESaIS1_EEixEm(ptr noundef nonnull align 8 dereferenceable(24) %52, i64 noundef %53) #18
  %55 = getelementptr inbounds nuw %"struct.std::pair", ptr %54, i32 0, i32 1
  %56 = load i32, ptr %55, align 4, !tbaa !48
  store i32 %56, ptr %10, align 4, !tbaa !7
  br label %57

57:                                               ; preds = %51, %44
  %58 = load i32, ptr %9, align 4, !tbaa !7
  %59 = icmp slt i32 %58, 0
  br i1 %59, label %63, label %60

60:                                               ; preds = %57
  %61 = load i32, ptr %10, align 4, !tbaa !7
  %62 = icmp slt i32 %61, 0
  br i1 %62, label %63, label %64

63:                                               ; preds = %60, %57
  store i32 4, ptr %6, align 4
  br label %77

64:                                               ; preds = %60
  %65 = getelementptr inbounds nuw %"class.cv::xfeatures2d::GMSMatcher", ptr %11, i32 0, i32 8
  %66 = load i32, ptr %9, align 4, !tbaa !7
  %67 = load i32, ptr %10, align 4, !tbaa !7
  %68 = call noundef nonnull align 4 dereferenceable(4) ptr @_ZN2cv3Mat2atIiEERT_ii(ptr noundef nonnull align 8 dereferenceable(96) %65, i32 noundef %66, i32 noundef %67)
  %69 = load i32, ptr %68, align 4, !tbaa !7
  %70 = add nsw i32 %69, 1
  store i32 %70, ptr %68, align 4, !tbaa !7
  %71 = getelementptr inbounds nuw %"class.cv::xfeatures2d::GMSMatcher", ptr %11, i32 0, i32 9
  %72 = load i32, ptr %9, align 4, !tbaa !7
  %73 = sext i32 %72 to i64
  %74 = call noundef nonnull align 4 dereferenceable(4) ptr @_ZNSt6vectorIiSaIiEEixEm(ptr noundef nonnull align 8 dereferenceable(24) %71, i64 noundef %73) #18
  %75 = load i32, ptr %74, align 4, !tbaa !7
  %76 = add nsw i32 %75, 1
  store i32 %76, ptr %74, align 4, !tbaa !7
  store i32 0, ptr %6, align 4
  br label %77

77:                                               ; preds = %64, %63
  call void @llvm.lifetime.end.p0(i64 4, ptr %10) #18
  call void @llvm.lifetime.end.p0(i64 4, ptr %9) #18
  call void @llvm.lifetime.end.p0(i64 8, ptr %8) #18
  call void @llvm.lifetime.end.p0(i64 8, ptr %7) #18
  %78 = load i32, ptr %6, align 4
  switch i32 %78, label %84 [
    i32 0, label %79
    i32 4, label %80
  ]

79:                                               ; preds = %77
  br label %80

80:                                               ; preds = %79, %77
  %81 = load i64, ptr %5, align 8, !tbaa !12
  %82 = add i64 %81, 1
  store i64 %82, ptr %5, align 8, !tbaa !12
  br label %12, !llvm.loop !49

83:                                               ; preds = %17
  ret void

84:                                               ; preds = %77
  unreachable
}