; Function Attrs: mustprogress nofree norecurse nosync nounwind memory(readwrite, inaccessiblemem: none) uwtable
define hidden void @_ZN2cv11xfeatures2d10GMSMatcher16assignMatchPairsEi(ptr noundef nonnull readonly align 8 captures(none) dereferenceable(512) %0, i32 noundef %1) local_unnamed_addr #1 align 2 {
  %3 = getelementptr inbounds nuw i8, ptr %0, i64 72
  %4 = load i64, ptr %3, align 8, !tbaa !3
  %.not = icmp eq i64 %4, 0
  br i1 %.not, label %._crit_edge, label %.lr.ph

.lr.ph:                                           ; preds = %2
  %5 = getelementptr inbounds nuw i8, ptr %0, i64 48
  %6 = load ptr, ptr %5, align 8, !tbaa !40
  %7 = load ptr, ptr %0, align 8, !tbaa !41
  %8 = getelementptr inbounds nuw i8, ptr %0, i64 24
  %9 = load ptr, ptr %8, align 8, !tbaa !41
  %10 = getelementptr inbounds nuw i8, ptr %0, i64 248
  %11 = load ptr, ptr %10, align 8, !tbaa !40
  %12 = icmp eq i32 %1, 1
  %13 = getelementptr inbounds nuw i8, ptr %0, i64 88
  %14 = getelementptr inbounds nuw i8, ptr %0, i64 92
  %15 = getelementptr inbounds nuw i8, ptr %0, i64 120
  %16 = load ptr, ptr %15, align 8
  %17 = getelementptr inbounds nuw i8, ptr %0, i64 176
  %18 = load ptr, ptr %17, align 8
  %19 = getelementptr inbounds nuw i8, ptr %0, i64 200
  %20 = load ptr, ptr %19, align 8
  br i1 %12, label %.lr.ph.split.us, label %.lr.ph.split

.lr.ph.split.us:                                  ; preds = %.lr.ph, %61
  %.01719.us = phi i64 [ %62, %61 ], [ 0, %.lr.ph ]
  %21 = getelementptr inbounds nuw %"struct.std::pair", ptr %6, i64 %.01719.us
  %22 = load i32, ptr %21, align 4, !tbaa !42
  %23 = sext i32 %22 to i64
  %24 = getelementptr inbounds nuw %"class.cv::Point_", ptr %7, i64 %23
  %25 = getelementptr inbounds nuw i8, ptr %21, i64 4
  %26 = load i32, ptr %25, align 4, !tbaa !44
  %27 = tail call noundef i32 @_ZN2cv11xfeatures2d10GMSMatcher16getGridIndexLeftERKNS_6Point_IfEEi(ptr noundef nonnull align 8 dereferenceable(512) %0, ptr noundef nonnull align 4 dereferenceable(8) %24, i32 noundef 1)
  %28 = getelementptr inbounds nuw %"struct.std::pair", ptr %11, i64 %.01719.us
  store i32 %27, ptr %28, align 4, !tbaa !42
  %29 = sext i32 %26 to i64
  %30 = getelementptr inbounds nuw %"class.cv::Point_", ptr %9, i64 %29
  %31 = load float, ptr %30, align 4, !tbaa !45
  %32 = load i32, ptr %13, align 8, !tbaa !48
  %33 = sitofp i32 %32 to float
  %34 = fmul float %31, %33
  %35 = tail call float @llvm.floor.f32(float %34)
  %36 = fptosi float %35 to i32
  %37 = getelementptr inbounds nuw i8, ptr %30, i64 4
  %38 = load float, ptr %37, align 4, !tbaa !49
  %39 = load i32, ptr %14, align 4, !tbaa !50
  %40 = sitofp i32 %39 to float
  %41 = fmul float %38, %40
  %42 = tail call float @llvm.floor.f32(float %41)
  %43 = fptosi float %42 to i32
  %44 = mul nsw i32 %32, %43
  %45 = add nsw i32 %44, %36
  %46 = getelementptr inbounds nuw i8, ptr %28, i64 4
  store i32 %45, ptr %46, align 4, !tbaa !44
  %47 = icmp slt i32 %27, 0
  %48 = icmp slt i32 %45, 0
  %or.cond.us = select i1 %47, i1 true, i1 %48
  br i1 %or.cond.us, label %61, label %49

49:                                               ; preds = %.lr.ph.split.us
  %50 = load i64, ptr %18, align 8, !tbaa !51
  %51 = zext nneg i32 %27 to i64
  %52 = mul i64 %50, %51
  %53 = getelementptr inbounds nuw i8, ptr %16, i64 %52
  %54 = zext nneg i32 %45 to i64
  %55 = getelementptr inbounds nuw i32, ptr %53, i64 %54
  %56 = load i32, ptr %55, align 4, !tbaa !52
  %57 = add nsw i32 %56, 1
  store i32 %57, ptr %55, align 4, !tbaa !52
  %58 = getelementptr inbounds nuw i32, ptr %20, i64 %51
  %59 = load i32, ptr %58, align 4, !tbaa !52
  %60 = add nsw i32 %59, 1
  store i32 %60, ptr %58, align 4, !tbaa !52
  br label %61

61:                                               ; preds = %49, %.lr.ph.split.us
  %62 = add nuw i64 %.01719.us, 1
  %exitcond21.not = icmp eq i64 %62, %4
  br i1 %exitcond21.not, label %._crit_edge, label %.lr.ph.split.us, !llvm.loop !53

._crit_edge:                                      ; preds = %85, %61, %2
  ret void

.lr.ph.split:                                     ; preds = %.lr.ph, %85
  %.01719 = phi i64 [ %86, %85 ], [ 0, %.lr.ph ]
  %63 = getelementptr inbounds nuw %"struct.std::pair", ptr %6, i64 %.01719
  %64 = load i32, ptr %63, align 4, !tbaa !42
  %65 = sext i32 %64 to i64
  %66 = getelementptr inbounds nuw %"class.cv::Point_", ptr %7, i64 %65
  %67 = tail call noundef i32 @_ZN2cv11xfeatures2d10GMSMatcher16getGridIndexLeftERKNS_6Point_IfEEi(ptr noundef nonnull align 8 dereferenceable(512) %0, ptr noundef nonnull align 4 dereferenceable(8) %66, i32 noundef %1)
  %68 = getelementptr inbounds nuw %"struct.std::pair", ptr %11, i64 %.01719
  store i32 %67, ptr %68, align 4, !tbaa !42
  %69 = getelementptr inbounds nuw i8, ptr %68, i64 4
  %70 = load i32, ptr %69, align 4, !tbaa !44
  %71 = icmp slt i32 %67, 0
  %72 = icmp slt i32 %70, 0
  %or.cond = select i1 %71, i1 true, i1 %72
  br i1 %or.cond, label %85, label %73

73:                                               ; preds = %.lr.ph.split
  %74 = load i64, ptr %18, align 8, !tbaa !51
  %75 = zext nneg i32 %67 to i64
  %76 = mul i64 %74, %75
  %77 = getelementptr inbounds nuw i8, ptr %16, i64 %76
  %78 = zext nneg i32 %70 to i64
  %79 = getelementptr inbounds nuw i32, ptr %77, i64 %78
  %80 = load i32, ptr %79, align 4, !tbaa !52
  %81 = add nsw i32 %80, 1
  store i32 %81, ptr %79, align 4, !tbaa !52
  %82 = getelementptr inbounds nuw i32, ptr %20, i64 %75
  %83 = load i32, ptr %82, align 4, !tbaa !52
  %84 = add nsw i32 %83, 1
  store i32 %84, ptr %82, align 4, !tbaa !52
  br label %85

85:                                               ; preds = %.lr.ph.split, %73
  %86 = add nuw i64 %.01719, 1
  %exitcond.not = icmp eq i64 %86, %4
  br i1 %exitcond.not, label %._crit_edge, label %.lr.ph.split, !llvm.loop !53
}